target datalayout = "e-m:e-p270:32:32-p271:32:32-p272:64:64-i64:64-i128:128-f80:128-n8:16:32:64-S128"
target triple = "x86_64-pc-linux-gnu"

@.str.2 = private unnamed_addr constant [53 x i8] c"cli_hex2num(): Malformed hexstring: %s (length: %d)\0A\00", align 1
@.str.3 = private unnamed_addr constant [35 x i8] c"cli_xtoi(): cli_max_malloc fails.\0A\00", align 1

; Function Attrs: nounwind uwtable
define internal i32 @cli_hex2int(i8 noundef signext %0) #0 {
  %2 = alloca i8, align 1
  store i8 %0, ptr %2, align 1
  %3 = load i8, ptr %2, align 1
  %4 = zext i8 %3 to i64
  %5 = getelementptr inbounds [256 x i32], ptr @hex_chars, i64 0, i64 %4
  %6 = load i32, ptr %5, align 4
  ret i32 %6
}

; Function Attrs: nounwind uwtable
define i32 @cli_hex2num(ptr noundef %0) #0 {
  %2 = alloca i32, align 4
  %3 = alloca ptr, align 8
  %4 = alloca i32, align 4
  %5 = alloca i32, align 4
  %6 = alloca i32, align 4
  %7 = alloca i32, align 4
  store ptr %0, ptr %3, align 8
  store i32 0, ptr %5, align 4
  %8 = load ptr, ptr %3, align 8
  %9 = call i64 @strlen(ptr noundef %8) #7
  %10 = trunc i64 %9 to i32
  store i32 %10, ptr %6, align 4
  %11 = load i32, ptr %6, align 4
  %12 = srem i32 %11, 2
  %13 = icmp ne i32 %12, 0
  br i1 %13, label %14, label %17

14:                                               ; preds = %1
  %15 = load ptr, ptr %3, align 8
  %16 = load i32, ptr %6, align 4
  call void (ptr, ...) @cli_errmsg(ptr noundef @.str.2, ptr noundef %15, i32 noundef %16)
  store i32 -1, ptr %2, align 4
  br label %41

17:                                               ; preds = %1
  store i32 0, ptr %7, align 4
  br label %18

18:                                               ; preds = %36, %17
  %19 = load i32, ptr %7, align 4
  %20 = load i32, ptr %6, align 4
  %21 = icmp slt i32 %19, %20
  br i1 %21, label %22, label %39

22:                                               ; preds = %18
  %23 = load ptr, ptr %3, align 8
  %24 = load i32, ptr %7, align 4
  %25 = sext i32 %24 to i64
  %26 = getelementptr inbounds i8, ptr %23, i64 %25
  %27 = load i8, ptr %26, align 1
  %28 = call i32 @cli_hex2int(i8 noundef signext %27)
  store i32 %28, ptr %4, align 4
  %29 = icmp slt i32 %28, 0
  br i1 %29, label %30, label %31

30:                                               ; preds = %22
  br label %39

31:                                               ; preds = %22
  %32 = load i32, ptr %5, align 4
  %33 = shl i32 %32, 4
  %34 = load i32, ptr %4, align 4
  %35 = or i32 %33, %34
  store i32 %35, ptr %5, align 4
  br label %36

36:                                               ; preds = %31
  %37 = load i32, ptr %7, align 4
  %38 = add nsw i32 %37, 1
  store i32 %38, ptr %7, align 4
  br label %18

39:                                               ; preds = %30, %18
  %40 = load i32, ptr %5, align 4
  store i32 %40, ptr %2, align 4
  br label %41

41:                                               ; preds = %39, %14
  %42 = load i32, ptr %2, align 4
  ret i32 %42
}

; Function Attrs: nounwind uwtable
define i32 @cli_xtoi(ptr noundef %0) #0 {
  %2 = alloca i32, align 4
  %3 = alloca ptr, align 8
  %4 = alloca i32, align 4
  %5 = alloca i32, align 4
  %6 = alloca i32, align 4
  %7 = alloca ptr, align 8
  store ptr %0, ptr %3, align 8
  %8 = load ptr, ptr %3, align 8
  %9 = call i64 @strlen(ptr noundef %8) #7
  %10 = trunc i64 %9 to i32
  store i32 %10, ptr %4, align 4
  %11 = load i32, ptr %4, align 4
  %12 = srem i32 %11, 2
  %13 = icmp eq i32 %12, 0
  br i1 %13, label %14, label %17

14:                                               ; preds = %1
  %15 = load ptr, ptr %3, align 8
  %16 = call i32 @cli_hex2num(ptr noundef %15)
  store i32 %16, ptr %2, align 4
  br label %49

17:                                               ; preds = %1
  %18 = load i32, ptr %4, align 4
  %19 = add nsw i32 %18, 2
  %20 = sext i32 %19 to i64
  %21 = call ptr @cli_max_calloc(i64 noundef %20, i64 noundef 1)
  store ptr %21, ptr %7, align 8
  %22 = load ptr, ptr %7, align 8
  %23 = icmp eq ptr %22, null
  br i1 %23, label %24, label %25

24:                                               ; preds = %17
  call void (ptr, ...) @cli_errmsg(ptr noundef @.str.3)
  store i32 -1, ptr %2, align 4
  br label %49

25:                                               ; preds = %17
  store i32 0, ptr %6, align 4
  br label %26

26:                                               ; preds = %41, %25
  %27 = load i32, ptr %6, align 4
  %28 = load i32, ptr %4, align 4
  %29 = icmp slt i32 %27, %28
  br i1 %29, label %30, label %44

30:                                               ; preds = %26
  %31 = load ptr, ptr %3, align 8
  %32 = load i32, ptr %6, align 4
  %33 = sext i32 %32 to i64
  %34 = getelementptr inbounds i8, ptr %31, i64 %33
  %35 = load i8, ptr %34, align 1
  %36 = load ptr, ptr %7, align 8
  %37 = load i32, ptr %6, align 4
  %38 = add nsw i32 %37, 1
  %39 = sext i32 %38 to i64
  %40 = getelementptr inbounds i8, ptr %36, i64 %39
  store i8 %35, ptr %40, align 1
  br label %41

41:                                               ; preds = %30
  %42 = load i32, ptr %6, align 4
  %43 = add nsw i32 %42, 1
  store i32 %43, ptr %6, align 4
  br label %26

44:                                               ; preds = %26
  %45 = load ptr, ptr %7, align 8
  %46 = call i32 @cli_hex2num(ptr noundef %45)
  store i32 %46, ptr %5, align 4
  %47 = load ptr, ptr %7, align 8
  call void @free(ptr noundef %47) #8
  %48 = load i32, ptr %5, align 4
  store i32 %48, ptr %2, align 4
  br label %49

49:                                               ; preds = %44, %24, %14
  %50 = load i32, ptr %2, align 4
  ret i32 %50
}