; Function Attrs: nounwind uwtable
define i32 @cli_xtoi(ptr nocapture noundef readonly %0) local_unnamed_addr #1 {
  %2 = tail call i64 @strlen(ptr noundef nonnull dereferenceable(1) %0) #26
  %3 = trunc i64 %2 to i32
  %4 = and i32 %3, 1
  %5 = icmp eq i32 %4, 0
  br i1 %5, label %.preheader.i, label %16

.preheader.i:                                     ; preds = %1
  %6 = icmp sgt i32 %3, 0
  br i1 %6, label %.lr.ph.preheader.i, label %cli_hex2num.exit

.lr.ph.preheader.i:                               ; preds = %.preheader.i
  %wide.trip.count.i = and i64 %2, 2147483647
  br label %.lr.ph.i

.lr.ph.i:                                         ; preds = %13, %.lr.ph.preheader.i
  %indvars.iv.i = phi i64 [ 0, %.lr.ph.preheader.i ], [ %indvars.iv.next.i, %13 ]
  %.01315.i = phi i32 [ 0, %.lr.ph.preheader.i ], [ %15, %13 ]
  %7 = getelementptr inbounds i8, ptr %0, i64 %indvars.iv.i
  %8 = load i8, ptr %7, align 1
  %9 = zext i8 %8 to i64
  %10 = getelementptr inbounds [256 x i32], ptr @hex_chars, i64 0, i64 %9
  %11 = load i32, ptr %10, align 4
  %12 = icmp slt i32 %11, 0
  br i1 %12, label %cli_hex2num.exit, label %13

13:                                               ; preds = %.lr.ph.i
  %14 = shl i32 %.01315.i, 4
  %15 = or i32 %11, %14
  %indvars.iv.next.i = add nuw nsw i64 %indvars.iv.i, 1
  %exitcond.not.i = icmp eq i64 %indvars.iv.next.i, %wide.trip.count.i
  br i1 %exitcond.not.i, label %cli_hex2num.exit, label %.lr.ph.i

16:                                               ; preds = %1
  %17 = shl i64 %2, 32
  %sext = add i64 %17, 8589934592
  %18 = ashr exact i64 %sext, 32
  %19 = tail call ptr @cli_max_calloc(i64 noundef %18, i64 noundef 1) #27
  %20 = icmp eq ptr %19, null
  br i1 %20, label %22, label %.preheader

.preheader:                                       ; preds = %16
  %21 = icmp sgt i32 %3, 0
  br i1 %21, label %.lr.ph.preheader, label %._crit_edge

.lr.ph.preheader:                                 ; preds = %.preheader
  %wide.trip.count = and i64 %2, 2147483647
  br label %.lr.ph

22:                                               ; preds = %16
  tail call void (ptr, ...) @cli_errmsg(ptr noundef nonnull @.str.3) #27
  br label %cli_hex2num.exit

.lr.ph:                                           ; preds = %.lr.ph.preheader, %.lr.ph
  %indvars.iv = phi i64 [ 0, %.lr.ph.preheader ], [ %indvars.iv.next, %.lr.ph ]
  %23 = getelementptr inbounds i8, ptr %0, i64 %indvars.iv
  %24 = load i8, ptr %23, align 1
  %indvars.iv.next = add nuw nsw i64 %indvars.iv, 1
  %25 = getelementptr inbounds i8, ptr %19, i64 %indvars.iv.next
  store i8 %24, ptr %25, align 1
  %exitcond.not = icmp eq i64 %indvars.iv.next, %wide.trip.count
  br i1 %exitcond.not, label %._crit_edge, label %.lr.ph

._crit_edge:                                      ; preds = %.lr.ph, %.preheader
  %26 = tail call i64 @strlen(ptr noundef nonnull dereferenceable(1) %19) #26
  %27 = trunc i64 %26 to i32
  %28 = and i32 %27, 1
  %.not.i17 = icmp eq i32 %28, 0
  br i1 %.not.i17, label %.preheader.i19, label %30

.preheader.i19:                                   ; preds = %._crit_edge
  %29 = icmp sgt i32 %27, 0
  br i1 %29, label %.lr.ph.preheader.i20, label %cli_hex2num.exit27

.lr.ph.preheader.i20:                             ; preds = %.preheader.i19
  %wide.trip.count.i21 = and i64 %26, 2147483647
  br label %.lr.ph.i22

30:                                               ; preds = %._crit_edge
  tail call void (ptr, ...) @cli_errmsg(ptr noundef nonnull @.str.2, ptr noundef nonnull %19, i32 noundef %27) #27
  br label %cli_hex2num.exit27

.lr.ph.i22:                                       ; preds = %37, %.lr.ph.preheader.i20
  %indvars.iv.i23 = phi i64 [ 0, %.lr.ph.preheader.i20 ], [ %indvars.iv.next.i25, %37 ]
  %.01315.i24 = phi i32 [ 0, %.lr.ph.preheader.i20 ], [ %39, %37 ]
  %31 = getelementptr inbounds i8, ptr %19, i64 %indvars.iv.i23
  %32 = load i8, ptr %31, align 1
  %33 = zext i8 %32 to i64
  %34 = getelementptr inbounds [256 x i32], ptr @hex_chars, i64 0, i64 %33
  %35 = load i32, ptr %34, align 4
  %36 = icmp slt i32 %35, 0
  br i1 %36, label %cli_hex2num.exit27, label %37

37:                                               ; preds = %.lr.ph.i22
  %38 = shl i32 %.01315.i24, 4
  %39 = or i32 %35, %38
  %indvars.iv.next.i25 = add nuw nsw i64 %indvars.iv.i23, 1
  %exitcond.not.i26 = icmp eq i64 %indvars.iv.next.i25, %wide.trip.count.i21
  br i1 %exitcond.not.i26, label %cli_hex2num.exit27, label %.lr.ph.i22

cli_hex2num.exit27:                               ; preds = %.lr.ph.i22, %37, %.preheader.i19, %30
  %.012.i18 = phi i32 [ -1, %30 ], [ 0, %.preheader.i19 ], [ %39, %37 ], [ %.01315.i24, %.lr.ph.i22 ]
  tail call void @free(ptr noundef %19) #27
  br label %cli_hex2num.exit

cli_hex2num.exit:                                 ; preds = %13, %.lr.ph.i, %.preheader.i, %cli_hex2num.exit27, %22
  %.0 = phi i32 [ -1, %22 ], [ %.012.i18, %cli_hex2num.exit27 ], [ 0, %.preheader.i ], [ %15, %13 ], [ %.01315.i, %.lr.ph.i ]
  ret i32 %.0
}